target datalayout = "e-m:e-p270:32:32-p271:32:32-p272:64:64-i64:64-i128:128-f80:128-n8:16:32:64-S128"
target triple = "x86_64-pc-linux-gnu"

%struct.Msat_Solver_t_ = type { i32, i32, ptr, ptr, double, double, ptr, ptr, double, double, ptr, ptr, ptr, i32, i32, ptr, ptr, ptr, ptr, ptr, ptr, i32, double, i32, double, ptr, ptr, ptr, ptr, i32, ptr, ptr, ptr, ptr, %struct.Msat_SolverStats_t_, i32, i32, i32, i32, i32, i32 }
%struct.Msat_SolverStats_t_ = type { i64, i64, i64, i64, i64, i64 }

@.str.1 = private unnamed_addr constant [2 x i8] c"-\00", align 1
@.str.2 = private unnamed_addr constant [1 x i8] zeroinitializer, align 1
@.str.5 = private unnamed_addr constant [18 x i8] c"%-*dcancel(%s%d)\0A\00", align 1
@.str.6 = private unnamed_addr constant [18 x i8] c"%-*dunbind(%s%d)\0A\00", align 1

; Function Attrs: nounwind uwtable
define internal void @Msat_SolverUndoOne(ptr noundef %0) #0 {
  %2 = alloca ptr, align 8
  %3 = alloca i32, align 4
  %4 = alloca i32, align 4
  store ptr %0, ptr %2, align 8, !tbaa !3
  call void @llvm.lifetime.start.p0(i64 4, ptr %3) #4
  call void @llvm.lifetime.start.p0(i64 4, ptr %4) #4
  %5 = load ptr, ptr %2, align 8, !tbaa !3
  %6 = getelementptr inbounds nuw %struct.Msat_Solver_t_, ptr %5, i32 0, i32 17
  %7 = load ptr, ptr %6, align 8, !tbaa !26
  %8 = call i32 @Msat_IntVecPop(ptr noundef %7)
  store i32 %8, ptr %3, align 4, !tbaa !8
  %9 = load i32, ptr %3, align 4, !tbaa !8
  %10 = ashr i32 %9, 1
  store i32 %10, ptr %4, align 4, !tbaa !8
  %11 = load ptr, ptr %2, align 8, !tbaa !3
  %12 = getelementptr inbounds nuw %struct.Msat_Solver_t_, ptr %11, i32 0, i32 15
  %13 = load ptr, ptr %12, align 8, !tbaa !30
  %14 = load i32, ptr %4, align 4, !tbaa !8
  %15 = sext i32 %14 to i64
  %16 = getelementptr inbounds i32, ptr %13, i64 %15
  store i32 -1, ptr %16, align 4, !tbaa !8
  %17 = load ptr, ptr %2, align 8, !tbaa !3
  %18 = getelementptr inbounds nuw %struct.Msat_Solver_t_, ptr %17, i32 0, i32 19
  %19 = load ptr, ptr %18, align 8, !tbaa !32
  %20 = load i32, ptr %4, align 4, !tbaa !8
  %21 = sext i32 %20 to i64
  %22 = getelementptr inbounds ptr, ptr %19, i64 %21
  store ptr null, ptr %22, align 8, !tbaa !27
  %23 = load ptr, ptr %2, align 8, !tbaa !3
  %24 = getelementptr inbounds nuw %struct.Msat_Solver_t_, ptr %23, i32 0, i32 20
  %25 = load ptr, ptr %24, align 8, !tbaa !31
  %26 = load i32, ptr %4, align 4, !tbaa !8
  %27 = sext i32 %26 to i64
  %28 = getelementptr inbounds i32, ptr %25, i64 %27
  store i32 -1, ptr %28, align 4, !tbaa !8
  %29 = load ptr, ptr %2, align 8, !tbaa !3
  %30 = getelementptr inbounds nuw %struct.Msat_Solver_t_, ptr %29, i32 0, i32 10
  %31 = load ptr, ptr %30, align 8, !tbaa !34
  %32 = load i32, ptr %4, align 4, !tbaa !8
  call void @Msat_OrderVarUnassigned(ptr noundef %31, i32 noundef %32)
  %33 = load ptr, ptr %2, align 8, !tbaa !3
  %34 = getelementptr inbounds nuw %struct.Msat_Solver_t_, ptr %33, i32 0, i32 23
  %35 = load i32, ptr %34, align 8, !tbaa !10
  %36 = icmp ne i32 %35, 0
  br i1 %36, label %37, label %52

37:                                               ; preds = %1
  %38 = load ptr, ptr %2, align 8, !tbaa !3
  %39 = call i32 @Msat_SolverReadDecisionLevel(ptr noundef %38)
  %40 = mul nsw i32 %39, 3
  %41 = add nsw i32 %40, 3
  %42 = load ptr, ptr %2, align 8, !tbaa !3
  %43 = call i32 @Msat_SolverReadDecisionLevel(ptr noundef %42)
  %44 = load i32, ptr %3, align 4, !tbaa !8
  %45 = and i32 %44, 1
  %46 = icmp ne i32 %45, 0
  %47 = select i1 %46, ptr @.str.1, ptr @.str.2
  %48 = load i32, ptr %3, align 4, !tbaa !8
  %49 = ashr i32 %48, 1
  %50 = add nsw i32 %49, 1
  %51 = call i32 (ptr, ...) @printf(ptr noundef @.str.6, i32 noundef %41, i32 noundef %43, ptr noundef %47, i32 noundef %50)
  br label %52

52:                                               ; preds = %37, %1
  call void @llvm.lifetime.end.p0(i64 4, ptr %4) #4
  call void @llvm.lifetime.end.p0(i64 4, ptr %3) #4
  ret void
}

; Function Attrs: nounwind uwtable
define internal void @Msat_SolverCancel(ptr noundef %0) #0 {
  %2 = alloca ptr, align 8
  %3 = alloca i32, align 4
  %4 = alloca i32, align 4
  store ptr %0, ptr %2, align 8, !tbaa !3
  call void @llvm.lifetime.start.p0(i64 4, ptr %3) #4
  %5 = load ptr, ptr %2, align 8, !tbaa !3
  %6 = getelementptr inbounds nuw %struct.Msat_Solver_t_, ptr %5, i32 0, i32 23
  %7 = load i32, ptr %6, align 8, !tbaa !10
  %8 = icmp ne i32 %7, 0
  br i1 %8, label %9, label %43

9:                                                ; preds = %1
  %10 = load ptr, ptr %2, align 8, !tbaa !3
  %11 = getelementptr inbounds nuw %struct.Msat_Solver_t_, ptr %10, i32 0, i32 17
  %12 = load ptr, ptr %11, align 8, !tbaa !26
  %13 = call i32 @Msat_IntVecReadSize(ptr noundef %12)
  %14 = load ptr, ptr %2, align 8, !tbaa !3
  %15 = getelementptr inbounds nuw %struct.Msat_Solver_t_, ptr %14, i32 0, i32 18
  %16 = load ptr, ptr %15, align 8, !tbaa !25
  %17 = call i32 @Msat_IntVecReadEntryLast(ptr noundef %16)
  %18 = icmp ne i32 %13, %17
  br i1 %18, label %19, label %42

19:                                               ; preds = %9
  call void @llvm.lifetime.start.p0(i64 4, ptr %4) #4
  %20 = load ptr, ptr %2, align 8, !tbaa !3
  %21 = getelementptr inbounds nuw %struct.Msat_Solver_t_, ptr %20, i32 0, i32 17
  %22 = load ptr, ptr %21, align 8, !tbaa !26
  %23 = load ptr, ptr %2, align 8, !tbaa !3
  %24 = getelementptr inbounds nuw %struct.Msat_Solver_t_, ptr %23, i32 0, i32 18
  %25 = load ptr, ptr %24, align 8, !tbaa !25
  %26 = call i32 @Msat_IntVecReadEntryLast(ptr noundef %25)
  %27 = call i32 @Msat_IntVecReadEntry(ptr noundef %22, i32 noundef %26)
  store i32 %27, ptr %4, align 4, !tbaa !8
  %28 = load ptr, ptr %2, align 8, !tbaa !3
  %29 = call i32 @Msat_SolverReadDecisionLevel(ptr noundef %28)
  %30 = mul nsw i32 %29, 3
  %31 = add nsw i32 %30, 3
  %32 = load ptr, ptr %2, align 8, !tbaa !3
  %33 = call i32 @Msat_SolverReadDecisionLevel(ptr noundef %32)
  %34 = load i32, ptr %4, align 4, !tbaa !8
  %35 = and i32 %34, 1
  %36 = icmp ne i32 %35, 0
  %37 = select i1 %36, ptr @.str.1, ptr @.str.2
  %38 = load i32, ptr %4, align 4, !tbaa !8
  %39 = ashr i32 %38, 1
  %40 = add nsw i32 %39, 1
  %41 = call i32 (ptr, ...) @printf(ptr noundef @.str.5, i32 noundef %31, i32 noundef %33, ptr noundef %37, i32 noundef %40)
  call void @llvm.lifetime.end.p0(i64 4, ptr %4) #4
  br label %42

42:                                               ; preds = %19, %9
  br label %43

43:                                               ; preds = %42, %1
  %44 = load ptr, ptr %2, align 8, !tbaa !3
  %45 = getelementptr inbounds nuw %struct.Msat_Solver_t_, ptr %44, i32 0, i32 17
  %46 = load ptr, ptr %45, align 8, !tbaa !26
  %47 = call i32 @Msat_IntVecReadSize(ptr noundef %46)
  %48 = load ptr, ptr %2, align 8, !tbaa !3
  %49 = getelementptr inbounds nuw %struct.Msat_Solver_t_, ptr %48, i32 0, i32 18
  %50 = load ptr, ptr %49, align 8, !tbaa !25
  %51 = call i32 @Msat_IntVecPop(ptr noundef %50)
  %52 = sub nsw i32 %47, %51
  store i32 %52, ptr %3, align 4, !tbaa !8
  br label %53

53:                                               ; preds = %58, %43
  %54 = load i32, ptr %3, align 4, !tbaa !8
  %55 = icmp ne i32 %54, 0
  br i1 %55, label %56, label %61

56:                                               ; preds = %53
  %57 = load ptr, ptr %2, align 8, !tbaa !3
  call void @Msat_SolverUndoOne(ptr noundef %57)
  br label %58

58:                                               ; preds = %56
  %59 = load i32, ptr %3, align 4, !tbaa !8
  %60 = add nsw i32 %59, -1
  store i32 %60, ptr %3, align 4, !tbaa !8
  br label %53, !llvm.loop !37

61:                                               ; preds = %53
  call void @llvm.lifetime.end.p0(i64 4, ptr %3) #4
  ret void
}

; Function Attrs: nounwind uwtable
define void @Msat_SolverCancelUntil(ptr noundef %0, i32 noundef %1) #0 {
  %3 = alloca ptr, align 8
  %4 = alloca i32, align 4
  store ptr %0, ptr %3, align 8, !tbaa !3
  store i32 %1, ptr %4, align 4, !tbaa !8
  br label %5

5:                                                ; preds = %12, %2
  %6 = load ptr, ptr %3, align 8, !tbaa !3
  %7 = getelementptr inbounds nuw %struct.Msat_Solver_t_, ptr %6, i32 0, i32 18
  %8 = load ptr, ptr %7, align 8, !tbaa !25
  %9 = call i32 @Msat_IntVecReadSize(ptr noundef %8)
  %10 = load i32, ptr %4, align 4, !tbaa !8
  %11 = icmp sgt i32 %9, %10
  br i1 %11, label %12, label %14

12:                                               ; preds = %5
  %13 = load ptr, ptr %3, align 8, !tbaa !3
  call void @Msat_SolverCancel(ptr noundef %13)
  br label %5, !llvm.loop !35

14:                                               ; preds = %5
  ret void
}