; Function Attrs: nounwind uwtable
define void @Msat_SolverCancelUntil(ptr noundef %0, i32 noundef %1) local_unnamed_addr #0 {
  %3 = getelementptr inbounds nuw i8, ptr %0, i64 128
  %4 = load ptr, ptr %3, align 8, !tbaa !22
  %5 = tail call i32 @Msat_IntVecReadSize(ptr noundef %4) #7
  %6 = icmp sgt i32 %5, %1
  br i1 %6, label %.lr.ph, label %._crit_edge

.lr.ph:                                           ; preds = %2
  %7 = getelementptr inbounds nuw i8, ptr %0, i64 168
  %8 = getelementptr inbounds nuw i8, ptr %0, i64 120
  %9 = getelementptr inbounds nuw i8, ptr %0, i64 104
  %10 = getelementptr inbounds nuw i8, ptr %0, i64 136
  %11 = getelementptr inbounds nuw i8, ptr %0, i64 144
  %12 = getelementptr inbounds nuw i8, ptr %0, i64 72
  br label %13

13:                                               ; preds = %.lr.ph, %Msat_SolverCancel.exit
  %14 = load i32, ptr %7, align 8, !tbaa !3
  %.not.i = icmp eq i32 %14, 0
  br i1 %.not.i, label %34, label %15

15:                                               ; preds = %13
  %16 = load ptr, ptr %8, align 8, !tbaa !23
  %17 = tail call i32 @Msat_IntVecReadSize(ptr noundef %16) #7
  %18 = load ptr, ptr %3, align 8, !tbaa !22
  %19 = tail call i32 @Msat_IntVecReadEntryLast(ptr noundef %18) #7
  %.not13.i = icmp eq i32 %17, %19
  br i1 %.not13.i, label %34, label %20

20:                                               ; preds = %15
  %21 = load ptr, ptr %8, align 8, !tbaa !23
  %22 = load ptr, ptr %3, align 8, !tbaa !22
  %23 = tail call i32 @Msat_IntVecReadEntryLast(ptr noundef %22) #7
  %24 = tail call i32 @Msat_IntVecReadEntry(ptr noundef %21, i32 noundef %23) #7
  %25 = tail call i32 @Msat_SolverReadDecisionLevel(ptr noundef nonnull %0) #7
  %26 = mul nsw i32 %25, 3
  %27 = add nsw i32 %26, 3
  %28 = tail call i32 @Msat_SolverReadDecisionLevel(ptr noundef nonnull %0) #7
  %29 = and i32 %24, 1
  %.not14.i = icmp eq i32 %29, 0
  %30 = select i1 %.not14.i, ptr @.str.2, ptr @.str.1
  %31 = ashr i32 %24, 1
  %32 = add nsw i32 %31, 1
  %33 = tail call i32 (ptr, ...) @printf(ptr noundef nonnull dereferenceable(1) @.str.5, i32 noundef %27, i32 noundef %28, ptr noundef nonnull %30, i32 noundef %32)
  br label %34

34:                                               ; preds = %20, %15, %13
  %35 = load ptr, ptr %8, align 8, !tbaa !23
  %36 = tail call i32 @Msat_IntVecReadSize(ptr noundef %35) #7
  %37 = load ptr, ptr %3, align 8, !tbaa !22
  %38 = tail call i32 @Msat_IntVecPop(ptr noundef %37) #7
  %39 = sub nsw i32 %36, %38
  %.not1516.i = icmp eq i32 %39, 0
  br i1 %.not1516.i, label %Msat_SolverCancel.exit, label %.lr.ph.i

.lr.ph.i:                                         ; preds = %34, %Msat_SolverUndoOne.exit.i
  %.017.i = phi i32 [ %61, %Msat_SolverUndoOne.exit.i ], [ %39, %34 ]
  %40 = load ptr, ptr %8, align 8, !tbaa !23
  %41 = tail call i32 @Msat_IntVecPop(ptr noundef %40) #7
  %42 = ashr i32 %41, 1
  %43 = load ptr, ptr %9, align 8, !tbaa !25
  %44 = sext i32 %42 to i64
  %45 = getelementptr inbounds i32, ptr %43, i64 %44
  store i32 -1, ptr %45, align 4, !tbaa !26
  %46 = load ptr, ptr %10, align 8, !tbaa !28
  %47 = getelementptr inbounds ptr, ptr %46, i64 %44
  store ptr null, ptr %47, align 8, !tbaa !29
  %48 = load ptr, ptr %11, align 8, !tbaa !27
  %49 = getelementptr inbounds i32, ptr %48, i64 %44
  store i32 -1, ptr %49, align 4, !tbaa !26
  %50 = load ptr, ptr %12, align 8, !tbaa !32
  tail call void @Msat_OrderVarUnassigned(ptr noundef %50, i32 noundef %42) #7
  %51 = load i32, ptr %7, align 8, !tbaa !3
  %.not.i.i = icmp eq i32 %51, 0
  br i1 %.not.i.i, label %Msat_SolverUndoOne.exit.i, label %52

52:                                               ; preds = %.lr.ph.i
  %53 = tail call i32 @Msat_SolverReadDecisionLevel(ptr noundef nonnull %0) #7
  %54 = mul nsw i32 %53, 3
  %55 = add nsw i32 %54, 3
  %56 = tail call i32 @Msat_SolverReadDecisionLevel(ptr noundef nonnull %0) #7
  %57 = and i32 %41, 1
  %.not14.i.i = icmp eq i32 %57, 0
  %58 = select i1 %.not14.i.i, ptr @.str.2, ptr @.str.1
  %59 = add nsw i32 %42, 1
  %60 = tail call i32 (ptr, ...) @printf(ptr noundef nonnull dereferenceable(1) @.str.6, i32 noundef %55, i32 noundef %56, ptr noundef nonnull %58, i32 noundef %59)
  br label %Msat_SolverUndoOne.exit.i

Msat_SolverUndoOne.exit.i:                        ; preds = %52, %.lr.ph.i
  %61 = add nsw i32 %.017.i, -1
  %.not15.i = icmp eq i32 %61, 0
  br i1 %.not15.i, label %Msat_SolverCancel.exit, label %.lr.ph.i, !llvm.loop !33

Msat_SolverCancel.exit:                           ; preds = %Msat_SolverUndoOne.exit.i, %34
  %62 = load ptr, ptr %3, align 8, !tbaa !22
  %63 = tail call i32 @Msat_IntVecReadSize(ptr noundef %62) #7
  %64 = icmp sgt i32 %63, %1
  br i1 %64, label %13, label %._crit_edge, !llvm.loop !35

._crit_edge:                                      ; preds = %Msat_SolverCancel.exit, %2
  ret void
}